target datalayout = "e-m:e-p270:32:32-p271:32:32-p272:64:64-i64:64-i128:128-f80:128-n8:16:32:64-S128"
target triple = "x86_64-pc-linux-gnu"

%struct.Abc_Frame_t_ = type { ptr, ptr, ptr, ptr, ptr, ptr, ptr, ptr, ptr, ptr, i32, i32, i32, i32, i32, ptr, float, float, i32, i32, ptr, ptr, ptr, double, double, ptr, ptr, ptr, ptr, ptr, ptr, ptr, ptr, ptr, ptr, ptr, ptr, float, ptr, i32, ptr, ptr, ptr, ptr, ptr, i32, i32, i32, i32, i32, i32, ptr, ptr, ptr, ptr, ptr, ptr, i32, i32, ptr, ptr, ptr, ptr, ptr, ptr, ptr, ptr, ptr, ptr, ptr, ptr, ptr, ptr, ptr, ptr, ptr, ptr, ptr, ptr, ptr, ptr, ptr, ptr, ptr, ptr, ptr, ptr, ptr, ptr }
%struct.Vec_Ptr_t_ = type { i32, i32, ptr }

@globalUtilOptind = external global i32, align 4
@.str.113 = private unnamed_addr constant [4 x i8] c"yes\00", align 1
@.str.114 = private unnamed_addr constant [3 x i8] c"no\00", align 1
@.str.118 = private unnamed_addr constant [38 x i8] c"\09-h     : prints the command summary\0A\00", align 1
@.str.195 = private unnamed_addr constant [3 x i8] c"rb\00", align 1
@.str.196 = private unnamed_addr constant [32 x i8] c"The file \22%s\22 cannot be found.\0A\00", align 1
@.str.198 = private unnamed_addr constant [34 x i8] c"Deriving the network has failed.\0A\00", align 1
@.str.206 = private unnamed_addr constant [42 x i8] c"\09file   : file name with the truth table\0A\00", align 1
@.str.207 = private unnamed_addr constant [3 x i8] c"mh\00", align 1
@.str.208 = private unnamed_addr constant [30 x i8] c"Reading CNF file has failed.\0A\00", align 1
@.str.209 = private unnamed_addr constant [30 x i8] c"usage: read_cnf [-mh] <file>\0A\00", align 1
@.str.210 = private unnamed_addr constant [41 x i8] c"\09         creates network with one node\0A\00", align 1
@.str.211 = private unnamed_addr constant [66 x i8] c"\09-m     : toggles generating multi-output network [default = %s]\0A\00", align 1

; Function Attrs: inlinehint nounwind uwtable
define internal ptr @Vec_PtrEntry(ptr noundef %0, i32 noundef %1) #3 {
  %3 = alloca ptr, align 8
  %4 = alloca i32, align 4
  store ptr %0, ptr %3, align 8, !tbaa !68
  store i32 %1, ptr %4, align 4, !tbaa !8
  %5 = load ptr, ptr %3, align 8, !tbaa !68
  %6 = getelementptr inbounds nuw %struct.Vec_Ptr_t_, ptr %5, i32 0, i32 2
  %7 = load ptr, ptr %6, align 8, !tbaa !150
  %8 = load i32, ptr %4, align 4, !tbaa !8
  %9 = sext i32 %8 to i64
  %10 = getelementptr inbounds ptr, ptr %7, i64 %9
  %11 = load ptr, ptr %10, align 8, !tbaa !152
  ret ptr %11
}

; Function Attrs: inlinehint nounwind uwtable
define internal void @Vec_PtrFree(ptr noundef %0) #3 {
  %2 = alloca ptr, align 8
  store ptr %0, ptr %2, align 8, !tbaa !68
  %3 = load ptr, ptr %2, align 8, !tbaa !68
  %4 = getelementptr inbounds nuw %struct.Vec_Ptr_t_, ptr %3, i32 0, i32 2
  %5 = load ptr, ptr %4, align 8, !tbaa !150
  %6 = icmp ne ptr %5, null
  br i1 %6, label %7, label %13

7:                                                ; preds = %1
  %8 = load ptr, ptr %2, align 8, !tbaa !68
  %9 = getelementptr inbounds nuw %struct.Vec_Ptr_t_, ptr %8, i32 0, i32 2
  %10 = load ptr, ptr %9, align 8, !tbaa !150
  call void @free(ptr noundef %10) #11
  %11 = load ptr, ptr %2, align 8, !tbaa !68
  %12 = getelementptr inbounds nuw %struct.Vec_Ptr_t_, ptr %11, i32 0, i32 2
  store ptr null, ptr %12, align 8, !tbaa !150
  br label %14

13:                                               ; preds = %1
  br label %14

14:                                               ; preds = %13, %7
  %15 = load ptr, ptr %2, align 8, !tbaa !68
  %16 = icmp ne ptr %15, null
  br i1 %16, label %17, label %19

17:                                               ; preds = %14
  %18 = load ptr, ptr %2, align 8, !tbaa !68
  call void @free(ptr noundef %18) #11
  store ptr null, ptr %2, align 8, !tbaa !68
  br label %20

19:                                               ; preds = %14
  br label %20

20:                                               ; preds = %19, %17
  ret void
}

; Function Attrs: inlinehint nounwind uwtable
define internal void @Vec_PtrFreeData(ptr noundef %0) #3 {
  %2 = alloca ptr, align 8
  %3 = alloca ptr, align 8
  %4 = alloca i32, align 4
  %5 = alloca i32, align 4
  store ptr %0, ptr %2, align 8, !tbaa !68
  call void @llvm.lifetime.start.p0(i64 8, ptr %3) #11
  call void @llvm.lifetime.start.p0(i64 4, ptr %4) #11
  %6 = load ptr, ptr %2, align 8, !tbaa !68
  %7 = icmp eq ptr %6, null
  br i1 %7, label %8, label %9

8:                                                ; preds = %1
  store i32 1, ptr %5, align 4
  br label %39

9:                                                ; preds = %1
  store i32 0, ptr %4, align 4, !tbaa !8
  br label %10

10:                                               ; preds = %35, %9
  %11 = load i32, ptr %4, align 4, !tbaa !8
  %12 = load ptr, ptr %2, align 8, !tbaa !68
  %13 = call i32 @Vec_PtrSize(ptr noundef %12)
  %14 = icmp slt i32 %11, %13
  br i1 %14, label %15, label %19

15:                                               ; preds = %10
  %16 = load ptr, ptr %2, align 8, !tbaa !68
  %17 = load i32, ptr %4, align 4, !tbaa !8
  %18 = call ptr @Vec_PtrEntry(ptr noundef %16, i32 noundef %17)
  store ptr %18, ptr %3, align 8, !tbaa !152
  br label %19

19:                                               ; preds = %15, %10
  %20 = phi i1 [ false, %10 ], [ true, %15 ]
  br i1 %20, label %21, label %38

21:                                               ; preds = %19
  %22 = load ptr, ptr %3, align 8, !tbaa !152
  %23 = icmp ne ptr %22, inttoptr (i64 1 to ptr)
  br i1 %23, label %24, label %34

24:                                               ; preds = %21
  %25 = load ptr, ptr %3, align 8, !tbaa !152
  %26 = icmp ne ptr %25, inttoptr (i64 2 to ptr)
  br i1 %26, label %27, label %34

27:                                               ; preds = %24
  %28 = load ptr, ptr %3, align 8, !tbaa !152
  %29 = icmp ne ptr %28, null
  br i1 %29, label %30, label %32

30:                                               ; preds = %27
  %31 = load ptr, ptr %3, align 8, !tbaa !152
  call void @free(ptr noundef %31) #11
  store ptr null, ptr %3, align 8, !tbaa !152
  br label %33

32:                                               ; preds = %27
  br label %33

33:                                               ; preds = %32, %30
  br label %34

34:                                               ; preds = %33, %24, %21
  br label %35

35:                                               ; preds = %34
  %36 = load i32, ptr %4, align 4, !tbaa !8
  %37 = add nsw i32 %36, 1
  store i32 %37, ptr %4, align 4, !tbaa !8
  br label %10, !llvm.loop !170

38:                                               ; preds = %19
  store i32 0, ptr %5, align 4
  br label %39

39:                                               ; preds = %38, %8
  call void @llvm.lifetime.end.p0(i64 4, ptr %4) #11
  call void @llvm.lifetime.end.p0(i64 8, ptr %3) #11
  %40 = load i32, ptr %5, align 4
  switch i32 %40, label %42 [
    i32 0, label %41
    i32 1, label %41
  ]

41:                                               ; preds = %39, %39
  ret void

42:                                               ; preds = %39
  unreachable
}

; Function Attrs: inlinehint nounwind uwtable
define internal void @Vec_PtrFreeFree(ptr noundef %0) #3 {
  %2 = alloca ptr, align 8
  store ptr %0, ptr %2, align 8, !tbaa !68
  %3 = load ptr, ptr %2, align 8, !tbaa !68
  %4 = icmp eq ptr %3, null
  br i1 %4, label %5, label %6

5:                                                ; preds = %1
  br label %9

6:                                                ; preds = %1
  %7 = load ptr, ptr %2, align 8, !tbaa !68
  call void @Vec_PtrFreeData(ptr noundef %7)
  %8 = load ptr, ptr %2, align 8, !tbaa !68
  call void @Vec_PtrFree(ptr noundef %8)
  br label %9

9:                                                ; preds = %6, %5
  ret void
}

; Function Attrs: inlinehint nounwind uwtable
define internal i32 @Vec_PtrSize(ptr noundef %0) #3 {
  %2 = alloca ptr, align 8
  store ptr %0, ptr %2, align 8, !tbaa !68
  %3 = load ptr, ptr %2, align 8, !tbaa !68
  %4 = getelementptr inbounds nuw %struct.Vec_Ptr_t_, ptr %3, i32 0, i32 1
  %5 = load i32, ptr %4, align 4, !tbaa !131
  ret i32 %5
}

; Function Attrs: nounwind uwtable
define internal i32 @IoCommandReadCnf(ptr noundef %0, i32 noundef %1, ptr noundef %2) #0 {
  %4 = alloca i32, align 4
  %5 = alloca ptr, align 8
  %6 = alloca i32, align 4
  %7 = alloca ptr, align 8
  %8 = alloca ptr, align 8
  %9 = alloca ptr, align 8
  %10 = alloca ptr, align 8
  %11 = alloca i32, align 4
  %12 = alloca i32, align 4
  %13 = alloca i32, align 4
  store ptr %0, ptr %5, align 8, !tbaa !3
  store i32 %1, ptr %6, align 4, !tbaa !8
  store ptr %2, ptr %7, align 8, !tbaa !10
  call void @llvm.lifetime.start.p0(i64 8, ptr %8) #11
  call void @llvm.lifetime.start.p0(i64 8, ptr %9) #11
  call void @llvm.lifetime.start.p0(i64 8, ptr %10) #11
  call void @llvm.lifetime.start.p0(i64 4, ptr %11) #11
  store i32 0, ptr %11, align 4, !tbaa !8
  call void @llvm.lifetime.start.p0(i64 4, ptr %12) #11
  call void (...) @Extra_UtilGetoptReset()
  br label %14

14:                                               ; preds = %26, %3
  %15 = load i32, ptr %6, align 4, !tbaa !8
  %16 = load ptr, ptr %7, align 8, !tbaa !10
  %17 = call i32 @Extra_UtilGetopt(i32 noundef %15, ptr noundef %16, ptr noundef @.str.207)
  store i32 %17, ptr %12, align 4, !tbaa !8
  %18 = icmp ne i32 %17, -1
  br i1 %18, label %19, label %27

19:                                               ; preds = %14
  %20 = load i32, ptr %12, align 4, !tbaa !8
  switch i32 %20, label %25 [
    i32 109, label %21
    i32 104, label %24
  ]

21:                                               ; preds = %19
  %22 = load i32, ptr %11, align 4, !tbaa !8
  %23 = xor i32 %22, 1
  store i32 %23, ptr %11, align 4, !tbaa !8
  br label %26

24:                                               ; preds = %19
  br label %84

25:                                               ; preds = %19
  br label %84

26:                                               ; preds = %21
  br label %14, !llvm.loop !69

27:                                               ; preds = %14
  %28 = load i32, ptr %6, align 4, !tbaa !8
  %29 = load i32, ptr @globalUtilOptind, align 4, !tbaa !8
  %30 = add nsw i32 %29, 1
  %31 = icmp ne i32 %28, %30
  br i1 %31, label %32, label %33

32:                                               ; preds = %27
  br label %84

33:                                               ; preds = %27
  %34 = load ptr, ptr %7, align 8, !tbaa !10
  %35 = load i32, ptr @globalUtilOptind, align 4, !tbaa !8
  %36 = sext i32 %35 to i64
  %37 = getelementptr inbounds ptr, ptr %34, i64 %36
  %38 = load ptr, ptr %37, align 8, !tbaa !14
  %39 = call noalias ptr @fopen(ptr noundef %38, ptr noundef @.str.195)
  store ptr %39, ptr %8, align 8, !tbaa !22
  %40 = load ptr, ptr %8, align 8, !tbaa !22
  %41 = icmp eq ptr %40, null
  br i1 %41, label %42, label %49

42:                                               ; preds = %33
  %43 = load ptr, ptr %7, align 8, !tbaa !10
  %44 = load i32, ptr @globalUtilOptind, align 4, !tbaa !8
  %45 = sext i32 %44 to i64
  %46 = getelementptr inbounds ptr, ptr %43, i64 %45
  %47 = load ptr, ptr %46, align 8, !tbaa !14
  %48 = call i32 (ptr, ...) @printf(ptr noundef @.str.196, ptr noundef %47)
  store i32 1, ptr %4, align 4
  store i32 1, ptr %13, align 4
  br label %108

49:                                               ; preds = %33
  %50 = load ptr, ptr %8, align 8, !tbaa !22
  %51 = call i32 @fclose(ptr noundef %50)
  br label %52

52:                                               ; preds = %49
  %53 = load ptr, ptr %7, align 8, !tbaa !10
  %54 = load i32, ptr @globalUtilOptind, align 4, !tbaa !8
  %55 = sext i32 %54 to i64
  %56 = getelementptr inbounds ptr, ptr %53, i64 %55
  %57 = load ptr, ptr %56, align 8, !tbaa !14
  %58 = load i32, ptr %11, align 4, !tbaa !8
  %59 = call ptr @Io_FileReadCnf(ptr noundef %57, i32 noundef %58)
  store ptr %59, ptr %10, align 8, !tbaa !68
  %60 = load ptr, ptr %10, align 8, !tbaa !68
  %61 = call i32 @Vec_PtrSize(ptr noundef %60)
  %62 = icmp eq i32 %61, 0
  br i1 %62, label %63, label %69

63:                                               ; preds = %52
  %64 = load ptr, ptr %10, align 8, !tbaa !68
  call void @Vec_PtrFreeFree(ptr noundef %64)
  %65 = load ptr, ptr %5, align 8, !tbaa !3
  %66 = getelementptr inbounds nuw %struct.Abc_Frame_t_, ptr %65, i32 0, i32 21
  %67 = load ptr, ptr %66, align 8, !tbaa !24
  %68 = call i32 (ptr, ptr, ...) @fprintf(ptr noundef %67, ptr noundef @.str.208) #11
  store i32 1, ptr %4, align 4
  store i32 1, ptr %13, align 4
  br label %108

69:                                               ; preds = %52
  %70 = load ptr, ptr %10, align 8, !tbaa !68
  %71 = call ptr @Abc_NtkCreateWithNodes(ptr noundef %70)
  store ptr %71, ptr %9, align 8, !tbaa !18
  %72 = load ptr, ptr %10, align 8, !tbaa !68
  call void @Vec_PtrFreeFree(ptr noundef %72)
  %73 = load ptr, ptr %9, align 8, !tbaa !18
  %74 = icmp eq ptr %73, null
  br i1 %74, label %75, label %80

75:                                               ; preds = %69
  %76 = load ptr, ptr %5, align 8, !tbaa !3
  %77 = getelementptr inbounds nuw %struct.Abc_Frame_t_, ptr %76, i32 0, i32 21
  %78 = load ptr, ptr %77, align 8, !tbaa !24
  %79 = call i32 (ptr, ptr, ...) @fprintf(ptr noundef %78, ptr noundef @.str.198) #11
  store i32 1, ptr %4, align 4
  store i32 1, ptr %13, align 4
  br label %108

80:                                               ; preds = %69
  %81 = load ptr, ptr %5, align 8, !tbaa !3
  %82 = load ptr, ptr %9, align 8, !tbaa !18
  call void @Abc_FrameReplaceCurrentNetwork(ptr noundef %81, ptr noundef %82)
  %83 = load ptr, ptr %5, align 8, !tbaa !3
  call void @Abc_FrameClearVerifStatus(ptr noundef %83)
  store i32 0, ptr %4, align 4
  store i32 1, ptr %13, align 4
  br label %108

84:                                               ; preds = %32, %25, %24
  %85 = load ptr, ptr %5, align 8, !tbaa !3
  %86 = getelementptr inbounds nuw %struct.Abc_Frame_t_, ptr %85, i32 0, i32 21
  %87 = load ptr, ptr %86, align 8, !tbaa !24
  %88 = call i32 (ptr, ptr, ...) @fprintf(ptr noundef %87, ptr noundef @.str.209) #11
  %89 = load ptr, ptr %5, align 8, !tbaa !3
  %90 = getelementptr inbounds nuw %struct.Abc_Frame_t_, ptr %89, i32 0, i32 21
  %91 = load ptr, ptr %90, align 8, !tbaa !24
  %92 = call i32 (ptr, ptr, ...) @fprintf(ptr noundef %91, ptr noundef @.str.210) #11
  %93 = load ptr, ptr %5, align 8, !tbaa !3
  %94 = getelementptr inbounds nuw %struct.Abc_Frame_t_, ptr %93, i32 0, i32 21
  %95 = load ptr, ptr %94, align 8, !tbaa !24
  %96 = load i32, ptr %11, align 4, !tbaa !8
  %97 = icmp ne i32 %96, 0
  %98 = select i1 %97, ptr @.str.113, ptr @.str.114
  %99 = call i32 (ptr, ptr, ...) @fprintf(ptr noundef %95, ptr noundef @.str.211, ptr noundef %98) #11
  %100 = load ptr, ptr %5, align 8, !tbaa !3
  %101 = getelementptr inbounds nuw %struct.Abc_Frame_t_, ptr %100, i32 0, i32 21
  %102 = load ptr, ptr %101, align 8, !tbaa !24
  %103 = call i32 (ptr, ptr, ...) @fprintf(ptr noundef %102, ptr noundef @.str.118) #11
  %104 = load ptr, ptr %5, align 8, !tbaa !3
  %105 = getelementptr inbounds nuw %struct.Abc_Frame_t_, ptr %104, i32 0, i32 21
  %106 = load ptr, ptr %105, align 8, !tbaa !24
  %107 = call i32 (ptr, ptr, ...) @fprintf(ptr noundef %106, ptr noundef @.str.206) #11
  store i32 1, ptr %4, align 4
  store i32 1, ptr %13, align 4
  br label %108

108:                                              ; preds = %84, %80, %75, %63, %42
  call void @llvm.lifetime.end.p0(i64 4, ptr %12) #11
  call void @llvm.lifetime.end.p0(i64 4, ptr %11) #11
  call void @llvm.lifetime.end.p0(i64 8, ptr %10) #11
  call void @llvm.lifetime.end.p0(i64 8, ptr %9) #11
  call void @llvm.lifetime.end.p0(i64 8, ptr %8) #11
  %109 = load i32, ptr %4, align 4
  ret i32 %109
}