; Function Attrs: nounwind uwtable
define internal range(i32 0, 2) i32 @IoCommandReadCnf(ptr noundef %0, i32 noundef %1, ptr noundef %2) #0 {
  tail call void (...) @Extra_UtilGetoptReset() #18
  br label %4

4:                                                ; preds = %6, %3
  %.027 = phi i32 [ 0, %3 ], [ %7, %6 ]
  %5 = tail call i32 @Extra_UtilGetopt(i32 noundef %1, ptr noundef %2, ptr noundef nonnull @.str.207) #18
  switch i32 %5, label %.loopexit [
    i32 -1, label %8
    i32 109, label %6
  ]

6:                                                ; preds = %4
  %7 = xor i32 %.027, 1
  br label %4, !llvm.loop !68

8:                                                ; preds = %4
  %9 = load i32, ptr @globalUtilOptind, align 4, !tbaa !3
  %10 = add nsw i32 %9, 1
  %.not31 = icmp eq i32 %1, %10
  br i1 %.not31, label %11, label %.loopexit

11:                                               ; preds = %8
  %12 = sext i32 %9 to i64
  %13 = getelementptr inbounds ptr, ptr %2, i64 %12
  %14 = load ptr, ptr %13, align 8, !tbaa !9
  %15 = tail call noalias ptr @fopen(ptr noundef %14, ptr noundef nonnull @.str.195)
  %16 = icmp eq ptr %15, null
  br i1 %16, label %17, label %23

17:                                               ; preds = %11
  %18 = load i32, ptr @globalUtilOptind, align 4, !tbaa !3
  %19 = sext i32 %18 to i64
  %20 = getelementptr inbounds ptr, ptr %2, i64 %19
  %21 = load ptr, ptr %20, align 8, !tbaa !9
  %22 = tail call i32 (ptr, ...) @printf(ptr noundef nonnull dereferenceable(1) @.str.196, ptr noundef %21)
  br label %70

23:                                               ; preds = %11
  %24 = tail call i32 @fclose(ptr noundef nonnull %15)
  %25 = load i32, ptr @globalUtilOptind, align 4, !tbaa !3
  %26 = sext i32 %25 to i64
  %27 = getelementptr inbounds ptr, ptr %2, i64 %26
  %28 = load ptr, ptr %27, align 8, !tbaa !9
  %29 = tail call ptr @Io_FileReadCnf(ptr noundef %28, i32 noundef %.027) #18
  %30 = getelementptr i8, ptr %29, i64 4
  %.val = load i32, ptr %30, align 4, !tbaa !32
  %31 = icmp eq i32 %.val, 0
  br i1 %31, label %Vec_PtrFreeData.exit.i, label %38

Vec_PtrFreeData.exit.i:                           ; preds = %23
  %32 = getelementptr inbounds nuw i8, ptr %29, i64 8
  %33 = load ptr, ptr %32, align 8, !tbaa !65
  %.not.i.i = icmp eq ptr %33, null
  br i1 %.not.i.i, label %Vec_PtrFreeFree.exit, label %34

34:                                               ; preds = %Vec_PtrFreeData.exit.i
  tail call void @free(ptr noundef nonnull %33) #18
  br label %Vec_PtrFreeFree.exit

Vec_PtrFreeFree.exit:                             ; preds = %Vec_PtrFreeData.exit.i, %34
  tail call void @free(ptr noundef nonnull %29) #18
  %35 = getelementptr inbounds nuw i8, ptr %0, i64 136
  %36 = load ptr, ptr %35, align 8, !tbaa !34
  %37 = tail call i64 @fwrite(ptr nonnull @.str.208, i64 29, i64 1, ptr %36)
  br label %70

38:                                               ; preds = %23
  %39 = tail call ptr @Abc_NtkCreateWithNodes(ptr noundef nonnull %29) #18
  %.val15.i.i33 = load i32, ptr %30, align 4, !tbaa !32
  %40 = icmp sgt i32 %.val15.i.i33, 0
  br i1 %40, label %.lr.ph.i.i37, label %Vec_PtrFreeData.exit.i34

.lr.ph.i.i37:                                     ; preds = %38
  %41 = getelementptr i8, ptr %29, i64 8
  br label %42

42:                                               ; preds = %46, %.lr.ph.i.i37
  %.val18.i.i38 = phi i32 [ %.val15.i.i33, %.lr.ph.i.i37 ], [ %.val.i.i43, %46 ]
  %indvars.iv.i.i39 = phi i64 [ 0, %.lr.ph.i.i37 ], [ %indvars.iv.next.i.i44, %46 ]
  %.val14.i.i40 = load ptr, ptr %41, align 8, !tbaa !65
  %43 = getelementptr inbounds nuw ptr, ptr %.val14.i.i40, i64 %indvars.iv.i.i39
  %44 = load ptr, ptr %43, align 8, !tbaa !66
  %switch.i.i41 = icmp ult ptr %44, inttoptr (i64 3 to ptr)
  br i1 %switch.i.i41, label %46, label %45

45:                                               ; preds = %42
  tail call void @free(ptr noundef %44) #18
  %.val.pre.i.i42 = load i32, ptr %30, align 4, !tbaa !32
  br label %46

46:                                               ; preds = %45, %42
  %.val.i.i43 = phi i32 [ %.val18.i.i38, %42 ], [ %.val.pre.i.i42, %45 ]
  %indvars.iv.next.i.i44 = add nuw nsw i64 %indvars.iv.i.i39, 1
  %47 = sext i32 %.val.i.i43 to i64
  %48 = icmp slt i64 %indvars.iv.next.i.i44, %47
  br i1 %48, label %42, label %Vec_PtrFreeData.exit.i34, !llvm.loop !67

Vec_PtrFreeData.exit.i34:                         ; preds = %46, %38
  %49 = getelementptr inbounds nuw i8, ptr %29, i64 8
  %50 = load ptr, ptr %49, align 8, !tbaa !65
  %.not.i.i35 = icmp eq ptr %50, null
  br i1 %.not.i.i35, label %Vec_PtrFreeFree.exit45, label %51

51:                                               ; preds = %Vec_PtrFreeData.exit.i34
  tail call void @free(ptr noundef nonnull %50) #18
  br label %Vec_PtrFreeFree.exit45

Vec_PtrFreeFree.exit45:                           ; preds = %Vec_PtrFreeData.exit.i34, %51
  tail call void @free(ptr noundef nonnull %29) #18
  %52 = icmp eq ptr %39, null
  br i1 %52, label %53, label %57

53:                                               ; preds = %Vec_PtrFreeFree.exit45
  %54 = getelementptr inbounds nuw i8, ptr %0, i64 136
  %55 = load ptr, ptr %54, align 8, !tbaa !34
  %56 = tail call i64 @fwrite(ptr nonnull @.str.198, i64 33, i64 1, ptr %55)
  br label %70

57:                                               ; preds = %Vec_PtrFreeFree.exit45
  tail call void @Abc_FrameReplaceCurrentNetwork(ptr noundef %0, ptr noundef nonnull %39) #18
  tail call void @Abc_FrameClearVerifStatus(ptr noundef %0) #18
  br label %70

.loopexit:                                        ; preds = %4, %8
  %58 = getelementptr inbounds nuw i8, ptr %0, i64 136
  %59 = load ptr, ptr %58, align 8, !tbaa !34
  %60 = tail call i64 @fwrite(ptr nonnull @.str.209, i64 29, i64 1, ptr %59)
  %61 = load ptr, ptr %58, align 8, !tbaa !34
  %62 = tail call i64 @fwrite(ptr nonnull @.str.210, i64 40, i64 1, ptr %61)
  %63 = load ptr, ptr %58, align 8, !tbaa !34
  %.not32 = icmp eq i32 %.027, 0
  %64 = select i1 %.not32, ptr @.str.114, ptr @.str.113
  %65 = tail call i32 (ptr, ptr, ...) @fprintf(ptr noundef %63, ptr noundef nonnull @.str.211, ptr noundef nonnull %64) #18
  %66 = load ptr, ptr %58, align 8, !tbaa !34
  %67 = tail call i64 @fwrite(ptr nonnull @.str.118, i64 37, i64 1, ptr %66)
  %68 = load ptr, ptr %58, align 8, !tbaa !34
  %69 = tail call i64 @fwrite(ptr nonnull @.str.206, i64 41, i64 1, ptr %68)
  br label %70

70:                                               ; preds = %.loopexit, %57, %53, %Vec_PtrFreeFree.exit, %17
  %.0 = phi i32 [ 1, %.loopexit ], [ 1, %17 ], [ 1, %Vec_PtrFreeFree.exit ], [ 1, %53 ], [ 0, %57 ]
  ret i32 %.0
}